target datalayout = "e-m:e-p270:32:32-p271:32:32-p272:64:64-i64:64-i128:128-f80:128-n8:16:32:64-S128"
target triple = "x86_64-unknown-linux-gnu"

%"class.google::protobuf::internal::InternalMetadata" = type { i64 }
%"class.google::protobuf::internal::HasBits" = type { [1 x i32] }
%"class.google::protobuf::internal::CachedSize" = type { i32 }
%union.anon.7 = type { %"struct.google::protobuf::FeatureSet::Impl_" }
%"struct.google::protobuf::FeatureSet::Impl_" = type { %"class.google::protobuf::internal::ExtensionSet", %"class.google::protobuf::internal::HasBits", %"class.google::protobuf::internal::CachedSize", i32, i32, i32, i32, i32, i32 }
%"class.google::protobuf::internal::ExtensionSet" = type { ptr, i16, i16, %"union.google::protobuf::internal::ExtensionSet::AllocatedData" }
%"union.google::protobuf::internal::ExtensionSet::AllocatedData" = type { ptr }
%"class.google::protobuf::Message" = type { %"class.google::protobuf::MessageLite" }
%"class.google::protobuf::MessageLite" = type { ptr, %"class.google::protobuf::internal::InternalMetadata" }
%"class.google::protobuf::FeatureSet" = type { %"class.google::protobuf::Message", %union.anon.7 }
%"class.google::protobuf::FeatureSetDefaults_FeatureSetEditionDefault" = type { %"class.google::protobuf::Message", %union.anon.24 }
%union.anon.24 = type { %"struct.google::protobuf::FeatureSetDefaults_FeatureSetEditionDefault::Impl_" }
%"struct.google::protobuf::FeatureSetDefaults_FeatureSetEditionDefault::Impl_" = type <{ %"class.google::protobuf::internal::HasBits", %"class.google::protobuf::internal::CachedSize", ptr, i32, [4 x i8] }>

; Function Attrs: mustprogress uwtable
define void @_ZN6google8protobuf10FeatureSet5ClearEv(ptr noundef nonnull align 8 dereferenceable(72) %this) unnamed_addr #4 align 2 {
entry:
  %this.addr.i11 = alloca ptr, align 8
  %this.addr.i9 = alloca ptr, align 8
  %this.addr.i7 = alloca ptr, align 8
  %index.addr.i = alloca i32, align 4
  %this.addr.i4 = alloca ptr, align 8
  %this.addr.i = alloca ptr, align 8
  %this.addr = alloca ptr, align 8
  %cached_has_bits = alloca i32, align 4
  store ptr %this, ptr %this.addr, align 8
  %this1 = load ptr, ptr %this.addr, align 8
  store i32 0, ptr %cached_has_bits, align 4
  %0 = getelementptr inbounds %"class.google::protobuf::FeatureSet", ptr %this1, i32 0, i32 1
  %_extensions_ = getelementptr inbounds %"struct.google::protobuf::FeatureSet::Impl_", ptr %0, i32 0, i32 0
  call void @_ZN6google8protobuf8internal12ExtensionSet5ClearEv(ptr noundef nonnull align 8 dereferenceable(24) %_extensions_)
  %1 = getelementptr inbounds %"class.google::protobuf::FeatureSet", ptr %this1, i32 0, i32 1
  %_has_bits_ = getelementptr inbounds %"struct.google::protobuf::FeatureSet::Impl_", ptr %1, i32 0, i32 1
  store ptr %_has_bits_, ptr %this.addr.i7, align 8
  store i32 0, ptr %index.addr.i, align 4
  %this1.i8 = load ptr, ptr %this.addr.i7, align 8
  %2 = load i32, ptr %index.addr.i, align 4
  %idxprom.i = sext i32 %2 to i64
  %arrayidx.i = getelementptr inbounds [1 x i32], ptr %this1.i8, i64 0, i64 %idxprom.i
  %3 = load i32, ptr %arrayidx.i, align 4
  store i32 %3, ptr %cached_has_bits, align 4
  %4 = load i32, ptr %cached_has_bits, align 4
  %and = and i32 %4, 63
  %tobool = icmp ne i32 %and, 0
  br i1 %tobool, label %if.then, label %if.end

if.then:                                          ; preds = %entry
  %5 = getelementptr inbounds %"class.google::protobuf::FeatureSet", ptr %this1, i32 0, i32 1
  %field_presence_ = getelementptr inbounds %"struct.google::protobuf::FeatureSet::Impl_", ptr %5, i32 0, i32 3
  %6 = getelementptr inbounds %"class.google::protobuf::FeatureSet", ptr %this1, i32 0, i32 1
  %json_format_ = getelementptr inbounds %"struct.google::protobuf::FeatureSet::Impl_", ptr %6, i32 0, i32 8
  %7 = getelementptr inbounds %"class.google::protobuf::FeatureSet", ptr %this1, i32 0, i32 1
  %field_presence_2 = getelementptr inbounds %"struct.google::protobuf::FeatureSet::Impl_", ptr %7, i32 0, i32 3
  %sub.ptr.lhs.cast = ptrtoint ptr %json_format_ to i64
  %sub.ptr.rhs.cast = ptrtoint ptr %field_presence_2 to i64
  %sub.ptr.sub = sub i64 %sub.ptr.lhs.cast, %sub.ptr.rhs.cast
  %add = add i64 %sub.ptr.sub, 4
  call void @llvm.memset.p0.i64(ptr align 8 %field_presence_, i8 0, i64 %add, i1 false)
  br label %if.end

if.end:                                           ; preds = %if.then, %entry
  %8 = getelementptr inbounds %"class.google::protobuf::FeatureSet", ptr %this1, i32 0, i32 1
  %_has_bits_3 = getelementptr inbounds %"struct.google::protobuf::FeatureSet::Impl_", ptr %8, i32 0, i32 1
  store ptr %_has_bits_3, ptr %this.addr.i9, align 8
  %this1.i10 = load ptr, ptr %this.addr.i9, align 8
  call void @llvm.memset.p0.i64(ptr align 4 %this1.i10, i8 0, i64 4, i1 false)
  %_internal_metadata_ = getelementptr inbounds %"class.google::protobuf::MessageLite", ptr %this1, i32 0, i32 1
  store ptr %_internal_metadata_, ptr %this.addr.i, align 8
  %this1.i = load ptr, ptr %this.addr.i, align 8
  store ptr %this1.i, ptr %this.addr.i4, align 8
  %this1.i5 = load ptr, ptr %this.addr.i4, align 8
  store ptr %this1.i5, ptr %this.addr.i11, align 8
  %this1.i12 = load ptr, ptr %this.addr.i11, align 8
  %9 = load i64, ptr %this1.i12, align 8
  %and.i = and i64 %9, 1
  %tobool.i = icmp ne i64 %and.i, 0
  br i1 %tobool.i, label %if.then.i, label %_ZN6google8protobuf8internal16InternalMetadata5ClearINS0_15UnknownFieldSetEEEvv.exit

if.then.i:                                        ; preds = %if.end
  call void @_ZN6google8protobuf8internal16InternalMetadata7DoClearINS0_15UnknownFieldSetEEEvv(ptr noundef nonnull align 8 dereferenceable(8) %this1.i)
  br label %_ZN6google8protobuf8internal16InternalMetadata5ClearINS0_15UnknownFieldSetEEEvv.exit

_ZN6google8protobuf8internal16InternalMetadata5ClearINS0_15UnknownFieldSetEEEvv.exit: ; preds = %if.then.i, %if.end
  ret void
}

; Function Attrs: mustprogress uwtable
define void @_ZN6google8protobuf43FeatureSetDefaults_FeatureSetEditionDefault5ClearEv(ptr noundef nonnull align 8 dereferenceable(40) %this) unnamed_addr #4 align 2 {
entry:
  %this.addr.i10 = alloca ptr, align 8
  %this.addr.i8 = alloca ptr, align 8
  %this.addr.i6 = alloca ptr, align 8
  %index.addr.i = alloca i32, align 4
  %this.addr.i3 = alloca ptr, align 8
  %this.addr.i = alloca ptr, align 8
  %this.addr = alloca ptr, align 8
  %cached_has_bits = alloca i32, align 4
  store ptr %this, ptr %this.addr, align 8
  %this1 = load ptr, ptr %this.addr, align 8
  store i32 0, ptr %cached_has_bits, align 4
  %0 = getelementptr inbounds %"class.google::protobuf::FeatureSetDefaults_FeatureSetEditionDefault", ptr %this1, i32 0, i32 1
  %_has_bits_ = getelementptr inbounds %"struct.google::protobuf::FeatureSetDefaults_FeatureSetEditionDefault::Impl_", ptr %0, i32 0, i32 0
  store ptr %_has_bits_, ptr %this.addr.i6, align 8
  store i32 0, ptr %index.addr.i, align 4
  %this1.i7 = load ptr, ptr %this.addr.i6, align 8
  %1 = load i32, ptr %index.addr.i, align 4
  %idxprom.i = sext i32 %1 to i64
  %arrayidx.i = getelementptr inbounds [1 x i32], ptr %this1.i7, i64 0, i64 %idxprom.i
  %2 = load i32, ptr %arrayidx.i, align 4
  store i32 %2, ptr %cached_has_bits, align 4
  %3 = load i32, ptr %cached_has_bits, align 4
  %and = and i32 %3, 1
  %tobool = icmp ne i32 %and, 0
  br i1 %tobool, label %if.then, label %if.end

if.then:                                          ; preds = %entry
  %4 = getelementptr inbounds %"class.google::protobuf::FeatureSetDefaults_FeatureSetEditionDefault", ptr %this1, i32 0, i32 1
  %features_ = getelementptr inbounds %"struct.google::protobuf::FeatureSetDefaults_FeatureSetEditionDefault::Impl_", ptr %4, i32 0, i32 2
  %5 = load ptr, ptr %features_, align 8
  call void @_ZN6google8protobuf10FeatureSet5ClearEv(ptr noundef nonnull align 8 dereferenceable(72) %5)
  br label %if.end

if.end:                                           ; preds = %if.then, %entry
  %6 = getelementptr inbounds %"class.google::protobuf::FeatureSetDefaults_FeatureSetEditionDefault", ptr %this1, i32 0, i32 1
  %edition_ = getelementptr inbounds %"struct.google::protobuf::FeatureSetDefaults_FeatureSetEditionDefault::Impl_", ptr %6, i32 0, i32 3
  store i32 0, ptr %edition_, align 8
  %7 = getelementptr inbounds %"class.google::protobuf::FeatureSetDefaults_FeatureSetEditionDefault", ptr %this1, i32 0, i32 1
  %_has_bits_2 = getelementptr inbounds %"struct.google::protobuf::FeatureSetDefaults_FeatureSetEditionDefault::Impl_", ptr %7, i32 0, i32 0
  store ptr %_has_bits_2, ptr %this.addr.i8, align 8
  %this1.i9 = load ptr, ptr %this.addr.i8, align 8
  call void @llvm.memset.p0.i64(ptr align 4 %this1.i9, i8 0, i64 4, i1 false)
  %_internal_metadata_ = getelementptr inbounds %"class.google::protobuf::MessageLite", ptr %this1, i32 0, i32 1
  store ptr %_internal_metadata_, ptr %this.addr.i, align 8
  %this1.i = load ptr, ptr %this.addr.i, align 8
  store ptr %this1.i, ptr %this.addr.i3, align 8
  %this1.i4 = load ptr, ptr %this.addr.i3, align 8
  store ptr %this1.i4, ptr %this.addr.i10, align 8
  %this1.i11 = load ptr, ptr %this.addr.i10, align 8
  %8 = load i64, ptr %this1.i11, align 8
  %and.i = and i64 %8, 1
  %tobool.i = icmp ne i64 %and.i, 0
  br i1 %tobool.i, label %if.then.i, label %_ZN6google8protobuf8internal16InternalMetadata5ClearINS0_15UnknownFieldSetEEEvv.exit

if.then.i:                                        ; preds = %if.end
  call void @_ZN6google8protobuf8internal16InternalMetadata7DoClearINS0_15UnknownFieldSetEEEvv(ptr noundef nonnull align 8 dereferenceable(8) %this1.i)
  br label %_ZN6google8protobuf8internal16InternalMetadata5ClearINS0_15UnknownFieldSetEEEvv.exit

_ZN6google8protobuf8internal16InternalMetadata5ClearINS0_15UnknownFieldSetEEEvv.exit: ; preds = %if.then.i, %if.end
  ret void
}