; Function Attrs: mustprogress uwtable
define void @_ZN6google8protobuf43FeatureSetDefaults_FeatureSetEditionDefault5ClearEv(ptr noundef nonnull align 8 dereferenceable(40) %this) unnamed_addr #3 align 2 {
entry:
  %0 = getelementptr inbounds i8, ptr %this, i64 16
  %1 = load i32, ptr %0, align 8
  %and = and i32 %1, 1
  %tobool.not = icmp eq i32 %and, 0
  br i1 %tobool.not, label %if.end, label %if.then

if.then:                                          ; preds = %entry
  %features_ = getelementptr inbounds i8, ptr %this, i64 24
  %2 = load ptr, ptr %features_, align 8
  %3 = getelementptr inbounds i8, ptr %2, i64 16
  tail call void @_ZN6google8protobuf8internal12ExtensionSet5ClearEv(ptr noundef nonnull align 8 dereferenceable(24) %3)
  %_has_bits_.i = getelementptr inbounds i8, ptr %2, i64 40
  %4 = load i32, ptr %_has_bits_.i, align 4
  %and.i1 = and i32 %4, 63
  %tobool.not.i = icmp eq i32 %and.i1, 0
  br i1 %tobool.not.i, label %if.end.i, label %if.then.i2

if.then.i2:                                       ; preds = %if.then
  %field_presence_.i = getelementptr inbounds i8, ptr %2, i64 48
  tail call void @llvm.memset.p0.i64(ptr noundef nonnull align 8 dereferenceable(24) %field_presence_.i, i8 0, i64 24, i1 false)
  br label %if.end.i

if.end.i:                                         ; preds = %if.then.i2, %if.then
  store i32 0, ptr %_has_bits_.i, align 8
  %_internal_metadata_.i = getelementptr inbounds i8, ptr %2, i64 8
  %5 = load i64, ptr %_internal_metadata_.i, align 8
  %and.i.i = and i64 %5, 1
  %tobool.i.not.i = icmp eq i64 %and.i.i, 0
  br i1 %tobool.i.not.i, label %if.end, label %if.then.i.i

if.then.i.i:                                      ; preds = %if.end.i
  tail call void @_ZN6google8protobuf8internal16InternalMetadata7DoClearINS0_15UnknownFieldSetEEEvv(ptr noundef nonnull align 8 dereferenceable(8) %_internal_metadata_.i)
  br label %if.end

if.end:                                           ; preds = %if.then.i.i, %if.end.i, %entry
  %edition_ = getelementptr inbounds i8, ptr %this, i64 32
  store i32 0, ptr %edition_, align 8
  store i32 0, ptr %0, align 8
  %_internal_metadata_ = getelementptr inbounds i8, ptr %this, i64 8
  %6 = load i64, ptr %_internal_metadata_, align 8
  %and.i = and i64 %6, 1
  %tobool.i.not = icmp eq i64 %and.i, 0
  br i1 %tobool.i.not, label %_ZN6google8protobuf8internal16InternalMetadata5ClearINS0_15UnknownFieldSetEEEvv.exit, label %if.then.i

if.then.i:                                        ; preds = %if.end
  tail call void @_ZN6google8protobuf8internal16InternalMetadata7DoClearINS0_15UnknownFieldSetEEEvv(ptr noundef nonnull align 8 dereferenceable(8) %_internal_metadata_)
  br label %_ZN6google8protobuf8internal16InternalMetadata5ClearINS0_15UnknownFieldSetEEEvv.exit

_ZN6google8protobuf8internal16InternalMetadata5ClearINS0_15UnknownFieldSetEEEvv.exit: ; preds = %if.then.i, %if.end
  ret void
}